; Function Attrs: mustprogress nofree norecurse nosync nounwind willreturn memory(read, inaccessiblemem: none) uwtable
define noundef range(i32 -2147483647, -2147483648) i32 @_ZNK6icu_7716BytesTrieBuilder17countElementUnitsEiii(ptr noundef nonnull readonly align 8 captures(none) dereferenceable(56) %0, i32 noundef %1, i32 noundef %2, i32 noundef %3) unnamed_addr #14 align 2 {
  %5 = getelementptr inbounds nuw i8, ptr %0, i64 24
  %6 = load ptr, ptr %5, align 8, !tbaa !30
  %7 = getelementptr inbounds nuw i8, ptr %0, i64 16
  %8 = load ptr, ptr %7, align 8, !tbaa !23
  %9 = load ptr, ptr %8, align 8, !tbaa !3
  %10 = sext i32 %3 to i64
  %invariant.gep17 = getelementptr i8, ptr %9, i64 %10
  %11 = sext i32 %2 to i64
  br label %12

12:                                               ; preds = %.critedge, %4
  %.013 = phi i32 [ %1, %4 ], [ %26, %.critedge ]
  %.0 = phi i32 [ 0, %4 ], [ %27, %.critedge ]
  %13 = sext i32 %.013 to i64
  %14 = getelementptr inbounds %"class.icu_77::BytesTrieElement", ptr %6, i64 %13
  %15 = load i32, ptr %14, align 4, !tbaa !17
  %.0.p.i.i = tail call i32 @llvm.abs.i32(i32 %15, i1 false)
  %.0.i.i = add nuw i32 %.0.p.i.i, 1
  %16 = zext nneg i32 %.0.i.i to i64
  %gep18 = getelementptr i8, ptr %invariant.gep17, i64 %16
  %17 = load i8, ptr %gep18, align 1, !tbaa !20
  br label %18

18:                                               ; preds = %20, %12
  %indvars.iv = phi i64 [ %indvars.iv.next, %20 ], [ %13, %12 ]
  %indvars.iv.next = add nsw i64 %indvars.iv, 1
  %19 = icmp slt i64 %indvars.iv.next, %11
  br i1 %19, label %20, label %28

20:                                               ; preds = %18
  %21 = getelementptr inbounds %"class.icu_77::BytesTrieElement", ptr %6, i64 %indvars.iv.next
  %22 = load i32, ptr %21, align 4, !tbaa !17
  %.0.p.i.i14 = tail call i32 @llvm.abs.i32(i32 %22, i1 false)
  %.0.i.i15 = add nuw i32 %.0.p.i.i14, 1
  %23 = zext nneg i32 %.0.i.i15 to i64
  %gep = getelementptr i8, ptr %invariant.gep17, i64 %23
  %24 = load i8, ptr %gep, align 1, !tbaa !20
  %25 = icmp eq i8 %17, %24
  br i1 %25, label %18, label %.critedge, !llvm.loop !44

.critedge:                                        ; preds = %20
  %26 = trunc nsw i64 %indvars.iv.next to i32
  %27 = add nuw nsw i32 %.0, 1
  br label %12

28:                                               ; preds = %18
  %29 = add nuw nsw i32 %.0, 1
  ret i32 %29
}